target datalayout = "e-m:e-p270:32:32-p271:32:32-p272:64:64-i64:64-i128:128-f80:128-n8:16:32:64-S128"
target triple = "x86_64-pc-linux-gnu"

%struct._lv_draw_task_t = type { ptr, i32, %struct.lv_area_t, %struct.lv_area_t, %struct.lv_area_t, %struct.lv_area_t, i32, ptr, i8, i8 }
%struct.lv_area_t = type { i32, i32, i32, i32 }
%struct._lv_draw_image_dsc_t = type { %struct.lv_draw_dsc_base_t, ptr, %struct.lv_image_header_t, i32, i32, i32, i32, i32, %struct.lv_point_t, %struct.lv_color_t, i8, i8, i8, ptr, %struct.lv_area_t, i32, ptr }
%struct.lv_draw_dsc_base_t = type { ptr, i32, i32, i32, ptr, i64, ptr }
%struct.lv_image_header_t = type <{ i64, i32 }>
%struct.lv_point_t = type { i32, i32 }
%struct.lv_color_t = type { i8, i8, i8 }

; Function Attrs: nounwind uwtable
define internal i32 @evaluate(ptr noundef %0, ptr noundef %1) #0 {
  %3 = alloca i32, align 4
  %4 = alloca ptr, align 8
  %5 = alloca ptr, align 8
  %6 = alloca ptr, align 8
  %7 = alloca i32, align 4
  %8 = alloca i8, align 1
  %9 = alloca i8, align 1
  %10 = alloca i32, align 4
  store ptr %0, ptr %4, align 8, !tbaa !7
  store ptr %1, ptr %5, align 8, !tbaa !7
  %11 = load ptr, ptr %5, align 8, !tbaa !7
  %12 = getelementptr inbounds nuw %struct._lv_draw_task_t, ptr %11, i32 0, i32 1
  %13 = load i32, ptr %12, align 8, !tbaa !24
  switch i32 %13, label %85 [
    i32 5, label %14
    i32 6, label %14
  ]

14:                                               ; preds = %2, %2
  call void @llvm.lifetime.start.p0(i64 8, ptr %6) #4
  %15 = load ptr, ptr %5, align 8, !tbaa !7
  %16 = getelementptr inbounds nuw %struct._lv_draw_task_t, ptr %15, i32 0, i32 7
  %17 = load ptr, ptr %16, align 8, !tbaa !25
  store ptr %17, ptr %6, align 8, !tbaa !7
  %18 = load ptr, ptr %6, align 8, !tbaa !7
  %19 = getelementptr inbounds nuw %struct._lv_draw_image_dsc_t, ptr %18, i32 0, i32 6
  %20 = load i32, ptr %19, align 8, !tbaa !26
  %21 = icmp ne i32 %20, 0
  br i1 %21, label %27, label %22

22:                                               ; preds = %14
  %23 = load ptr, ptr %6, align 8, !tbaa !7
  %24 = getelementptr inbounds nuw %struct._lv_draw_image_dsc_t, ptr %23, i32 0, i32 7
  %25 = load i32, ptr %24, align 4, !tbaa !34
  %26 = icmp ne i32 %25, 0
  br i1 %26, label %27, label %28

27:                                               ; preds = %22, %14
  store i32 0, ptr %3, align 4
  store i32 1, ptr %7, align 4
  br label %82

28:                                               ; preds = %22
  call void @llvm.lifetime.start.p0(i64 1, ptr %8) #4
  %29 = load ptr, ptr %6, align 8, !tbaa !7
  %30 = getelementptr inbounds nuw %struct._lv_draw_image_dsc_t, ptr %29, i32 0, i32 3
  %31 = load i32, ptr %30, align 4, !tbaa !35
  %32 = icmp ne i32 %31, 0
  br i1 %32, label %43, label %33

33:                                               ; preds = %28
  %34 = load ptr, ptr %6, align 8, !tbaa !7
  %35 = getelementptr inbounds nuw %struct._lv_draw_image_dsc_t, ptr %34, i32 0, i32 4
  %36 = load i32, ptr %35, align 8, !tbaa !36
  %37 = icmp ne i32 %36, 256
  br i1 %37, label %43, label %38

38:                                               ; preds = %33
  %39 = load ptr, ptr %6, align 8, !tbaa !7
  %40 = getelementptr inbounds nuw %struct._lv_draw_image_dsc_t, ptr %39, i32 0, i32 5
  %41 = load i32, ptr %40, align 4, !tbaa !37
  %42 = icmp ne i32 %41, 256
  br label %43

43:                                               ; preds = %38, %33, %28
  %44 = phi i1 [ true, %33 ], [ true, %28 ], [ %42, %38 ]
  %45 = select i1 %44, i32 1, i32 0
  %46 = icmp ne i32 %45, 0
  %47 = zext i1 %46 to i8
  store i8 %47, ptr %8, align 1, !tbaa !38
  call void @llvm.lifetime.start.p0(i64 1, ptr %9) #4
  %48 = load ptr, ptr %6, align 8, !tbaa !7
  %49 = getelementptr inbounds nuw %struct._lv_draw_image_dsc_t, ptr %48, i32 0, i32 16
  %50 = load ptr, ptr %49, align 8, !tbaa !40
  %51 = icmp ne ptr %50, null
  %52 = zext i1 %51 to i8
  store i8 %52, ptr %9, align 1, !tbaa !38
  %53 = load i8, ptr %9, align 1, !tbaa !38, !range !41, !noundef !42
  %54 = trunc i8 %53 to i1
  br i1 %54, label %55, label %59

55:                                               ; preds = %43
  %56 = load i8, ptr %8, align 1, !tbaa !38, !range !41, !noundef !42
  %57 = trunc i8 %56 to i1
  br i1 %57, label %58, label %59

58:                                               ; preds = %55
  store i32 0, ptr %3, align 4
  store i32 1, ptr %7, align 4
  br label %81

59:                                               ; preds = %55, %43
  call void @llvm.lifetime.start.p0(i64 4, ptr %10) #4
  %60 = load ptr, ptr %6, align 8, !tbaa !7
  %61 = getelementptr inbounds nuw %struct._lv_draw_image_dsc_t, ptr %60, i32 0, i32 2
  %62 = load i64, ptr %61, align 8
  %63 = lshr i64 %62, 8
  %64 = and i64 %63, 255
  %65 = trunc i64 %64 to i32
  store i32 %65, ptr %10, align 4, !tbaa !3
  %66 = load i8, ptr %9, align 1, !tbaa !38, !range !41, !noundef !42
  %67 = trunc i8 %66 to i1
  br i1 %67, label %68, label %75

68:                                               ; preds = %59
  %69 = load i32, ptr %10, align 4, !tbaa !3
  %70 = icmp eq i32 %69, 14
  br i1 %70, label %74, label %71

71:                                               ; preds = %68
  %72 = load i32, ptr %10, align 4, !tbaa !3
  %73 = icmp eq i32 %72, 20
  br i1 %73, label %74, label %75

74:                                               ; preds = %71, %68
  store i32 0, ptr %3, align 4
  store i32 1, ptr %7, align 4
  br label %80

75:                                               ; preds = %71, %59
  %76 = load i32, ptr %10, align 4, !tbaa !3
  %77 = icmp uge i32 %76, 48
  br i1 %77, label %78, label %79

78:                                               ; preds = %75
  store i32 0, ptr %3, align 4
  store i32 1, ptr %7, align 4
  br label %80

79:                                               ; preds = %75
  store i32 0, ptr %7, align 4
  br label %80

80:                                               ; preds = %79, %78, %74
  call void @llvm.lifetime.end.p0(i64 4, ptr %10) #4
  br label %81

81:                                               ; preds = %80, %58
  call void @llvm.lifetime.end.p0(i64 1, ptr %9) #4
  call void @llvm.lifetime.end.p0(i64 1, ptr %8) #4
  br label %82

82:                                               ; preds = %81, %27
  call void @llvm.lifetime.end.p0(i64 8, ptr %6) #4
  %83 = load i32, ptr %7, align 4
  switch i32 %83, label %100 [
    i32 0, label %84
    i32 1, label %98
  ]

84:                                               ; preds = %82
  br label %86

85:                                               ; preds = %2
  br label %86

86:                                               ; preds = %85, %84
  %87 = load ptr, ptr %5, align 8, !tbaa !7
  %88 = getelementptr inbounds nuw %struct._lv_draw_task_t, ptr %87, i32 0, i32 9
  %89 = load i8, ptr %88, align 1, !tbaa !43
  %90 = zext i8 %89 to i32
  %91 = icmp sge i32 %90, 100
  br i1 %91, label %92, label %97

92:                                               ; preds = %86
  %93 = load ptr, ptr %5, align 8, !tbaa !7
  %94 = getelementptr inbounds nuw %struct._lv_draw_task_t, ptr %93, i32 0, i32 9
  store i8 100, ptr %94, align 1, !tbaa !43
  %95 = load ptr, ptr %5, align 8, !tbaa !7
  %96 = getelementptr inbounds nuw %struct._lv_draw_task_t, ptr %95, i32 0, i32 8
  store i8 1, ptr %96, align 8, !tbaa !44
  br label %97

97:                                               ; preds = %92, %86
  store i32 0, ptr %3, align 4
  br label %98

98:                                               ; preds = %97, %82
  %99 = load i32, ptr %3, align 4
  ret i32 %99

100:                                              ; preds = %82
  unreachable
}