; Function Attrs: mustprogress nofree norecurse nosync nounwind willreturn memory(read, argmem: readwrite, inaccessiblemem: none) uwtable
define internal noundef i32 @evaluate(ptr nocapture readnone %0, ptr nocapture noundef %1) #2 {
  %3 = getelementptr inbounds nuw i8, ptr %1, i64 8
  %4 = load i32, ptr %3, align 8, !tbaa !20
  %.off = add i32 %4, -5
  %switch = icmp ult i32 %.off, 2
  br i1 %switch, label %5, label %34

5:                                                ; preds = %2
  %6 = getelementptr inbounds nuw i8, ptr %1, i64 80
  %7 = load ptr, ptr %6, align 8, !tbaa !21
  %8 = getelementptr inbounds nuw i8, ptr %7, i64 80
  %9 = load i32, ptr %8, align 8, !tbaa !22
  %.not = icmp eq i32 %9, 0
  br i1 %.not, label %10, label %.thread

10:                                               ; preds = %5
  %11 = getelementptr inbounds nuw i8, ptr %7, i64 84
  %12 = load i32, ptr %11, align 4, !tbaa !30
  %.not23 = icmp eq i32 %12, 0
  br i1 %.not23, label %13, label %.thread

13:                                               ; preds = %10
  %14 = getelementptr inbounds nuw i8, ptr %7, i64 68
  %15 = load i32, ptr %14, align 4, !tbaa !31
  %.not24 = icmp eq i32 %15, 0
  br i1 %.not24, label %16, label %23

16:                                               ; preds = %13
  %17 = getelementptr inbounds nuw i8, ptr %7, i64 72
  %18 = load i32, ptr %17, align 8, !tbaa !32
  %.not25 = icmp eq i32 %18, 256
  br i1 %.not25, label %19, label %23

19:                                               ; preds = %16
  %20 = getelementptr inbounds nuw i8, ptr %7, i64 76
  %21 = load i32, ptr %20, align 4, !tbaa !33
  %22 = icmp eq i32 %21, 256
  br label %23

23:                                               ; preds = %19, %16, %13
  %.not27 = phi i1 [ false, %16 ], [ false, %13 ], [ %22, %19 ]
  %24 = getelementptr inbounds nuw i8, ptr %7, i64 136
  %25 = load ptr, ptr %24, align 8, !tbaa !34
  %.not26 = icmp eq ptr %25, null
  %brmerge = select i1 %.not26, i1 true, i1 %.not27
  br i1 %brmerge, label %26, label %.thread

26:                                               ; preds = %23
  %27 = getelementptr inbounds nuw i8, ptr %7, i64 56
  %28 = load i64, ptr %27, align 8
  br i1 %.not26, label %31, label %29

29:                                               ; preds = %26
  %30 = lshr i64 %28, 8
  %trunc = trunc i64 %30 to i8
  switch i8 %trunc, label %31 [
    i8 20, label %.thread
    i8 14, label %.thread
  ]

31:                                               ; preds = %29, %26
  %32 = and i64 %28, 61440
  %33 = icmp samesign ugt i64 %32, 12032
  br i1 %33, label %.thread, label %34

34:                                               ; preds = %31, %2
  %35 = getelementptr inbounds nuw i8, ptr %1, i64 89
  %36 = load i8, ptr %35, align 1, !tbaa !35
  %37 = icmp ugt i8 %36, 99
  br i1 %37, label %38, label %.thread

38:                                               ; preds = %34
  store i8 100, ptr %35, align 1, !tbaa !35
  %39 = getelementptr inbounds nuw i8, ptr %1, i64 88
  store i8 1, ptr %39, align 8, !tbaa !36
  br label %.thread

.thread:                                          ; preds = %31, %29, %29, %23, %5, %10, %34, %38
  ret i32 0
}